; Function Attrs: nounwind sspstrong uwtable
define dso_local i32 @block_signals() local_unnamed_addr #1 {
entry:
  %set = alloca %struct.__sigset_t, align 8
  %0 = tail call align 8 ptr @llvm.threadlocal.address.p0(ptr align 8 @thread_cpu)
  %1 = load ptr, ptr %0, align 8
  %opaque = getelementptr inbounds nuw i8, ptr %1, i64 624
  %2 = load ptr, ptr %opaque, align 16
  %call = call i32 @sigfillset(ptr noundef nonnull %set) #16
  %call1 = call i32 @sigprocmask(i32 noundef 2, ptr noundef nonnull %set, ptr noundef null) #16
  %signal_pending = getelementptr inbounds nuw i8, ptr %2, i64 9164
  %3 = atomicrmw xchg ptr %signal_pending, i32 1 seq_cst, align 4
  ret i32 %3
}